; Function Attrs: mustprogress nounwind uwtable
define internal void @_ZN7testing8internal26CartesianProductGenerator3IN11opencv_test12_GLOBAL__N_112_GLOBAL__N_110GuideTypesENS4_8SrcTypesEN2cv5Size_IiEEED2Ev(ptr noundef nonnull align 8 dereferenceable(56) %0) unnamed_addr #6 align 2 personality ptr @__gxx_personality_v0 {
  store ptr getelementptr inbounds inrange(-16, 32) (i8, ptr @_ZTVN7testing8internal26CartesianProductGenerator3IN11opencv_test12_GLOBAL__N_112_GLOBAL__N_110GuideTypesENS4_8SrcTypesEN2cv5Size_IiEEEE, i64 16), ptr %0, align 8
  %2 = getelementptr inbounds i8, ptr %0, i64 40
  %3 = getelementptr inbounds i8, ptr %0, i64 48
  invoke void @_ZN7testing8internal9MutexBase4LockEv(ptr noundef nonnull align 8 dereferenceable(56) @_ZN7testing8internal18g_linked_ptr_mutexE)
          to label %.noexc.i.i unwind label %19

.noexc.i.i:                                       ; preds = %1
  %4 = load ptr, ptr %3, align 8
  %5 = icmp eq ptr %4, %3
  br i1 %5, label %8, label %.preheader.i.i.i.i

.preheader.i.i.i.i:                               ; preds = %.noexc.i.i, %.preheader.i.i.i.i
  %.0.i.i.i.i = phi ptr [ %6, %.preheader.i.i.i.i ], [ %4, %.noexc.i.i ]
  %6 = load ptr, ptr %.0.i.i.i.i, align 8
  %.not.i.i.i.i = icmp eq ptr %6, %3
  br i1 %.not.i.i.i.i, label %7, label %.preheader.i.i.i.i, !llvm.loop !46

7:                                                ; preds = %.preheader.i.i.i.i
  store ptr %4, ptr %.0.i.i.i.i, align 8
  br label %8

8:                                                ; preds = %7, %.noexc.i.i
  invoke void @_ZN7testing8internal9MutexBase6UnlockEv(ptr noundef nonnull align 8 dereferenceable(56) @_ZN7testing8internal18g_linked_ptr_mutexE)
          to label %_ZN7testing8internal19linked_ptr_internal6departEv.exit.i.i.i unwind label %9

9:                                                ; preds = %8
  %10 = landingpad { ptr, i32 }
          catch ptr null
  %11 = extractvalue { ptr, i32 } %10, 0
  tail call void @__clang_call_terminate(ptr %11) #27
  unreachable

_ZN7testing8internal19linked_ptr_internal6departEv.exit.i.i.i: ; preds = %8
  br i1 %5, label %12, label %_ZN7testing8internal14ParamGeneratorIN2cv5Size_IiEEED2Ev.exit

12:                                               ; preds = %_ZN7testing8internal19linked_ptr_internal6departEv.exit.i.i.i
  %13 = load ptr, ptr %2, align 8
  %14 = icmp eq ptr %13, null
  br i1 %14, label %_ZN7testing8internal14ParamGeneratorIN2cv5Size_IiEEED2Ev.exit, label %15

15:                                               ; preds = %12
  %16 = load ptr, ptr %13, align 8
  %17 = getelementptr inbounds i8, ptr %16, i64 8
  %18 = load ptr, ptr %17, align 8
  tail call void %18(ptr noundef nonnull align 8 dereferenceable(8) %13) #26
  br label %_ZN7testing8internal14ParamGeneratorIN2cv5Size_IiEEED2Ev.exit

19:                                               ; preds = %1
  %20 = landingpad { ptr, i32 }
          catch ptr null
  %21 = extractvalue { ptr, i32 } %20, 0
  tail call void @__clang_call_terminate(ptr %21) #27
  unreachable

_ZN7testing8internal14ParamGeneratorIN2cv5Size_IiEEED2Ev.exit: ; preds = %_ZN7testing8internal19linked_ptr_internal6departEv.exit.i.i.i, %12, %15
  %22 = getelementptr inbounds i8, ptr %0, i64 24
  %23 = getelementptr inbounds i8, ptr %0, i64 32
  invoke void @_ZN7testing8internal9MutexBase4LockEv(ptr noundef nonnull align 8 dereferenceable(56) @_ZN7testing8internal18g_linked_ptr_mutexE)
          to label %.noexc.i.i1 unwind label %39

.noexc.i.i1:                                      ; preds = %_ZN7testing8internal14ParamGeneratorIN2cv5Size_IiEEED2Ev.exit
  %24 = load ptr, ptr %23, align 8
  %25 = icmp eq ptr %24, %23
  br i1 %25, label %28, label %.preheader.i.i.i.i2

.preheader.i.i.i.i2:                              ; preds = %.noexc.i.i1, %.preheader.i.i.i.i2
  %.0.i.i.i.i3 = phi ptr [ %26, %.preheader.i.i.i.i2 ], [ %24, %.noexc.i.i1 ]
  %26 = load ptr, ptr %.0.i.i.i.i3, align 8
  %.not.i.i.i.i4 = icmp eq ptr %26, %23
  br i1 %.not.i.i.i.i4, label %27, label %.preheader.i.i.i.i2, !llvm.loop !46

27:                                               ; preds = %.preheader.i.i.i.i2
  store ptr %24, ptr %.0.i.i.i.i3, align 8
  br label %28

28:                                               ; preds = %27, %.noexc.i.i1
  invoke void @_ZN7testing8internal9MutexBase6UnlockEv(ptr noundef nonnull align 8 dereferenceable(56) @_ZN7testing8internal18g_linked_ptr_mutexE)
          to label %_ZN7testing8internal19linked_ptr_internal6departEv.exit.i.i.i5 unwind label %29

29:                                               ; preds = %28
  %30 = landingpad { ptr, i32 }
          catch ptr null
  %31 = extractvalue { ptr, i32 } %30, 0
  tail call void @__clang_call_terminate(ptr %31) #27
  unreachable

_ZN7testing8internal19linked_ptr_internal6departEv.exit.i.i.i5: ; preds = %28
  br i1 %25, label %32, label %_ZN7testing8internal14ParamGeneratorIN11opencv_test12_GLOBAL__N_112_GLOBAL__N_18SrcTypesEED2Ev.exit

32:                                               ; preds = %_ZN7testing8internal19linked_ptr_internal6departEv.exit.i.i.i5
  %33 = load ptr, ptr %22, align 8
  %34 = icmp eq ptr %33, null
  br i1 %34, label %_ZN7testing8internal14ParamGeneratorIN11opencv_test12_GLOBAL__N_112_GLOBAL__N_18SrcTypesEED2Ev.exit, label %35

35:                                               ; preds = %32
  %36 = load ptr, ptr %33, align 8
  %37 = getelementptr inbounds i8, ptr %36, i64 8
  %38 = load ptr, ptr %37, align 8
  tail call void %38(ptr noundef nonnull align 8 dereferenceable(8) %33) #26
  br label %_ZN7testing8internal14ParamGeneratorIN11opencv_test12_GLOBAL__N_112_GLOBAL__N_18SrcTypesEED2Ev.exit

39:                                               ; preds = %_ZN7testing8internal14ParamGeneratorIN2cv5Size_IiEEED2Ev.exit
  %40 = landingpad { ptr, i32 }
          catch ptr null
  %41 = extractvalue { ptr, i32 } %40, 0
  tail call void @__clang_call_terminate(ptr %41) #27
  unreachable

_ZN7testing8internal14ParamGeneratorIN11opencv_test12_GLOBAL__N_112_GLOBAL__N_18SrcTypesEED2Ev.exit: ; preds = %_ZN7testing8internal19linked_ptr_internal6departEv.exit.i.i.i5, %32, %35
  %42 = getelementptr inbounds i8, ptr %0, i64 8
  %43 = getelementptr inbounds i8, ptr %0, i64 16
  invoke void @_ZN7testing8internal9MutexBase4LockEv(ptr noundef nonnull align 8 dereferenceable(56) @_ZN7testing8internal18g_linked_ptr_mutexE)
          to label %.noexc.i.i6 unwind label %59

.noexc.i.i6:                                      ; preds = %_ZN7testing8internal14ParamGeneratorIN11opencv_test12_GLOBAL__N_112_GLOBAL__N_18SrcTypesEED2Ev.exit
  %44 = load ptr, ptr %43, align 8
  %45 = icmp eq ptr %44, %43
  br i1 %45, label %48, label %.preheader.i.i.i.i7

.preheader.i.i.i.i7:                              ; preds = %.noexc.i.i6, %.preheader.i.i.i.i7
  %.0.i.i.i.i8 = phi ptr [ %46, %.preheader.i.i.i.i7 ], [ %44, %.noexc.i.i6 ]
  %46 = load ptr, ptr %.0.i.i.i.i8, align 8
  %.not.i.i.i.i9 = icmp eq ptr %46, %43
  br i1 %.not.i.i.i.i9, label %47, label %.preheader.i.i.i.i7, !llvm.loop !46

47:                                               ; preds = %.preheader.i.i.i.i7
  store ptr %44, ptr %.0.i.i.i.i8, align 8
  br label %48

48:                                               ; preds = %47, %.noexc.i.i6
  invoke void @_ZN7testing8internal9MutexBase6UnlockEv(ptr noundef nonnull align 8 dereferenceable(56) @_ZN7testing8internal18g_linked_ptr_mutexE)
          to label %_ZN7testing8internal19linked_ptr_internal6departEv.exit.i.i.i10 unwind label %49

49:                                               ; preds = %48
  %50 = landingpad { ptr, i32 }
          catch ptr null
  %51 = extractvalue { ptr, i32 } %50, 0
  tail call void @__clang_call_terminate(ptr %51) #27
  unreachable

_ZN7testing8internal19linked_ptr_internal6departEv.exit.i.i.i10: ; preds = %48
  br i1 %45, label %52, label %_ZN7testing8internal14ParamGeneratorIN11opencv_test12_GLOBAL__N_112_GLOBAL__N_110GuideTypesEED2Ev.exit

52:                                               ; preds = %_ZN7testing8internal19linked_ptr_internal6departEv.exit.i.i.i10
  %53 = load ptr, ptr %42, align 8
  %54 = icmp eq ptr %53, null
  br i1 %54, label %_ZN7testing8internal14ParamGeneratorIN11opencv_test12_GLOBAL__N_112_GLOBAL__N_110GuideTypesEED2Ev.exit, label %55

55:                                               ; preds = %52
  %56 = load ptr, ptr %53, align 8
  %57 = getelementptr inbounds i8, ptr %56, i64 8
  %58 = load ptr, ptr %57, align 8
  tail call void %58(ptr noundef nonnull align 8 dereferenceable(8) %53) #26
  br label %_ZN7testing8internal14ParamGeneratorIN11opencv_test12_GLOBAL__N_112_GLOBAL__N_110GuideTypesEED2Ev.exit

59:                                               ; preds = %_ZN7testing8internal14ParamGeneratorIN11opencv_test12_GLOBAL__N_112_GLOBAL__N_18SrcTypesEED2Ev.exit
  %60 = landingpad { ptr, i32 }
          catch ptr null
  %61 = extractvalue { ptr, i32 } %60, 0
  tail call void @__clang_call_terminate(ptr %61) #27
  unreachable

_ZN7testing8internal14ParamGeneratorIN11opencv_test12_GLOBAL__N_112_GLOBAL__N_110GuideTypesEED2Ev.exit: ; preds = %_ZN7testing8internal19linked_ptr_internal6departEv.exit.i.i.i10, %52, %55
  ret void
}